; Function Attrs: mustprogress nofree norecurse nosync nounwind willreturn memory(argmem: read) uwtable
define noundef i32 @_ZNK10open_spiel5tarok10TarokState23TrickCardsIndexToPlayerEi(ptr noundef nonnull readonly align 8 captures(none) dereferenceable(280) %0, i32 noundef %1) local_unnamed_addr #10 align 2 {
  %3 = getelementptr inbounds nuw i8, ptr %0, i64 88
  %4 = load i32, ptr %3, align 8
  %5 = getelementptr inbounds nuw i8, ptr %0, i64 224
  %6 = getelementptr inbounds nuw i8, ptr %0, i64 232
  %7 = load ptr, ptr %6, align 8
  %8 = load ptr, ptr %5, align 8
  %9 = ptrtoint ptr %7 to i64
  %10 = ptrtoint ptr %8 to i64
  %11 = sub i64 %9, %10
  %12 = ashr exact i64 %11, 3
  %13 = xor i32 %1, -1
  %14 = sext i32 %13 to i64
  %15 = add nsw i64 %12, %14
  %.not = icmp eq i64 %15, 0
  br i1 %.not, label %._crit_edge, label %.lr.ph

.lr.ph:                                           ; preds = %2
  %16 = getelementptr inbounds nuw i8, ptr %0, i64 28
  %17 = load i32, ptr %16, align 4
  br label %18

18:                                               ; preds = %.lr.ph, %18
  %indvars.iv = phi i64 [ 0, %.lr.ph ], [ %indvars.iv.next, %18 ]
  %.068 = phi i32 [ %4, %.lr.ph ], [ %.1, %18 ]
  %19 = icmp eq i32 %.068, 0
  %.1.in = select i1 %19, i32 %17, i32 %.068
  %.1 = add nsw i32 %.1.in, -1
  %indvars.iv.next = add nuw nsw i64 %indvars.iv, 1
  %exitcond.not = icmp eq i64 %indvars.iv.next, %15
  br i1 %exitcond.not, label %._crit_edge, label %18, !llvm.loop !84

._crit_edge:                                      ; preds = %18, %2
  %.06.lcssa = phi i32 [ %4, %2 ], [ %.1, %18 ]
  ret i32 %.06.lcssa
}